; Function Attrs: mustprogress uwtable
define hidden noundef zeroext i1 @_ZNK4cvc58internal16DTypeConstructor25involvesUninterpretedTypeEv(ptr nocapture noundef nonnull readonly align 8 dereferenceable(264) %this) local_unnamed_addr #3 align 2 personality ptr @__gxx_personality_v0 {
entry:
  %ref.tmp = alloca %"class.cvc5::internal::TypeNode", align 8
  %d_args.i = getelementptr inbounds i8, ptr %this, i64 80
  %_M_finish.i.i = getelementptr inbounds i8, ptr %this, i64 88
  %0 = load ptr, ptr %_M_finish.i.i, align 8
  %1 = load ptr, ptr %d_args.i, align 8
  %sub.ptr.lhs.cast.i.i = ptrtoint ptr %0 to i64
  %sub.ptr.rhs.cast.i.i = ptrtoint ptr %1 to i64
  %sub.ptr.sub.i.i = sub i64 %sub.ptr.lhs.cast.i.i, %sub.ptr.rhs.cast.i.i
  %sub.ptr.div.i.i = ashr exact i64 %sub.ptr.sub.i.i, 4
  %cmp5.not = icmp eq ptr %0, %1
  br i1 %cmp5.not, label %return, label %for.body.preheader

for.body.preheader:                               ; preds = %entry
  %umax = tail call i64 @llvm.umax.i64(i64 %sub.ptr.div.i.i, i64 1)
  br label %for.body

for.cond:                                         ; preds = %_ZN4cvc58internal8TypeNodeD2Ev.exit
  %inc = add nuw i64 %i.06, 1
  %cmp = icmp ult i64 %inc, %sub.ptr.div.i.i
  %exitcond.not = icmp eq i64 %inc, %umax
  br i1 %exitcond.not, label %return, label %for.body, !llvm.loop !61

for.body:                                         ; preds = %for.body.preheader, %for.cond
  %cmp7 = phi i1 [ %cmp, %for.cond ], [ true, %for.body.preheader ]
  %i.06 = phi i64 [ %inc, %for.cond ], [ 0, %for.body.preheader ]
  call void @_ZNK4cvc58internal16DTypeConstructor10getArgTypeEm(ptr nonnull sret(%"class.cvc5::internal::TypeNode") align 8 %ref.tmp, ptr noundef nonnull align 8 dereferenceable(264) %this, i64 noundef %i.06)
  %call2 = invoke noundef zeroext i1 @_ZNK4cvc58internal8TypeNode19isUninterpretedSortEv(ptr noundef nonnull align 8 dereferenceable(8) %ref.tmp)
          to label %invoke.cont unwind label %lpad

invoke.cont:                                      ; preds = %for.body
  %2 = load ptr, ptr %ref.tmp, align 8
  %bf.load.i.i = load i64, ptr %2, align 8
  %3 = and i64 %bf.load.i.i, 1152920405095219200
  %cmp.not.i.i = icmp eq i64 %3, 1152920405095219200
  br i1 %cmp.not.i.i, label %_ZN4cvc58internal8TypeNodeD2Ev.exit, label %if.then.i.i

if.then.i.i:                                      ; preds = %invoke.cont
  %bf.value.i.i = add i64 %bf.load.i.i, 1152920405095219200
  %bf.shl.i.i = and i64 %bf.value.i.i, 1152920405095219200
  %bf.clear7.i.i = and i64 %bf.load.i.i, -1152920405095219201
  %bf.set.i.i = or disjoint i64 %bf.shl.i.i, %bf.clear7.i.i
  store i64 %bf.set.i.i, ptr %2, align 8
  %cmp12.i.i = icmp eq i64 %bf.shl.i.i, 0
  br i1 %cmp12.i.i, label %if.then13.i.i, label %_ZN4cvc58internal8TypeNodeD2Ev.exit

if.then13.i.i:                                    ; preds = %if.then.i.i
  invoke void @_ZN4cvc58internal4expr9NodeValue15markForDeletionEv(ptr noundef nonnull align 8 dereferenceable(16) %2)
          to label %_ZN4cvc58internal8TypeNodeD2Ev.exit unwind label %terminate.lpad.i

terminate.lpad.i:                                 ; preds = %if.then13.i.i
  %4 = landingpad { ptr, i32 }
          catch ptr null
  %5 = extractvalue { ptr, i32 } %4, 0
  call void @__clang_call_terminate(ptr %5) #25
  unreachable

_ZN4cvc58internal8TypeNodeD2Ev.exit:              ; preds = %invoke.cont, %if.then.i.i, %if.then13.i.i
  br i1 %call2, label %for.cond, label %return

lpad:                                             ; preds = %for.body
  %6 = landingpad { ptr, i32 }
          cleanup
  call void @_ZN4cvc58internal8TypeNodeD2Ev(ptr noundef nonnull align 8 dereferenceable(8) %ref.tmp) #22
  resume { ptr, i32 } %6

return:                                           ; preds = %_ZN4cvc58internal8TypeNodeD2Ev.exit, %for.cond, %entry
  %cmp.lcssa = phi i1 [ false, %entry ], [ %cmp, %for.cond ], [ %cmp7, %_ZN4cvc58internal8TypeNodeD2Ev.exit ]
  ret i1 %cmp.lcssa
}